; ModuleID = '20/578.c'
source_filename = "20/578.c"
target datalayout = "e-m:e-p270:32:32-p271:32:32-p272:64:64-i64:64-f80:128-n8:16:32:64-S128"
target triple = "x86_64-pc-linux-gnu"

@.str = private unnamed_addr constant [6 x i8] c"%s %s\00", align 1
@.str.1 = private unnamed_addr constant [3 x i8] c"%c\00", align 1
@.str.2 = private unnamed_addr constant [2 x i8] c"\0A\00", align 1

; Function Attrs: noinline nounwind uwtable
define dso_local i32 @main() #0 {
  %1 = alloca i32, align 4
  %2 = alloca [100 x i8], align 16
  %3 = alloca [100 x i8], align 16
  %4 = alloca i8*, align 8
  %5 = alloca i8*, align 8
  %6 = alloca i32, align 4
  %7 = alloca i32, align 4
  %8 = alloca i32, align 4
  store i32 0, i32* %1, align 4
  br label %9

9:                                                ; preds = %104, %0
  %10 = getelementptr inbounds [100 x i8], [100 x i8]* %2, i64 0, i64 0
  %11 = getelementptr inbounds [100 x i8], [100 x i8]* %3, i64 0, i64 0
  %12 = call i32 (i8*, ...) @__isoc99_scanf(i8* getelementptr inbounds ([6 x i8], [6 x i8]* @.str, i64 0, i64 0), i8* %10, i8* %11)
  %13 = icmp ne i32 %12, -1
  br i1 %13, label %14, label %106

14:                                               ; preds = %9
  %15 = getelementptr inbounds [100 x i8], [100 x i8]* %2, i64 0, i64 0
  %16 = call i64 @strlen(i8* %15) #3
  %17 = trunc i64 %16 to i32
  store i32 %17, i32* %7, align 4
  %18 = getelementptr inbounds [100 x i8], [100 x i8]* %3, i64 0, i64 0
  store i8* %18, i8** %5, align 8
  store i32 0, i32* %8, align 4
  store i32 1, i32* %6, align 4
  br label %19

19:                                               ; preds = %38, %14
  %20 = load i32, i32* %6, align 4
  %21 = load i32, i32* %7, align 4
  %22 = icmp slt i32 %20, %21
  br i1 %22, label %23, label %41

23:                                               ; preds = %19
  %24 = load i32, i32* %6, align 4
  %25 = sext i32 %24 to i64
  %26 = getelementptr inbounds [100 x i8], [100 x i8]* %2, i64 0, i64 %25
  %27 = load i8, i8* %26, align 1
  %28 = sext i8 %27 to i32
  %29 = load i32, i32* %8, align 4
  %30 = sext i32 %29 to i64
  %31 = getelementptr inbounds [100 x i8], [100 x i8]* %2, i64 0, i64 %30
  %32 = load i8, i8* %31, align 1
  %33 = sext i8 %32 to i32
  %34 = icmp sgt i32 %28, %33
  br i1 %34, label %35, label %37

35:                                               ; preds = %23
  %36 = load i32, i32* %6, align 4
  store i32 %36, i32* %8, align 4
  br label %37

37:                                               ; preds = %35, %23
  br label %38

38:                                               ; preds = %37
  %39 = load i32, i32* %6, align 4
  %40 = add nsw i32 %39, 1
  store i32 %40, i32* %6, align 4
  br label %19

41:                                               ; preds = %19
  %42 = getelementptr inbounds [100 x i8], [100 x i8]* %2, i64 0, i64 0
  %43 = load i32, i32* %7, align 4
  %44 = sext i32 %43 to i64
  %45 = getelementptr inbounds i8, i8* %42, i64 %44
  %46 = getelementptr inbounds i8, i8* %45, i64 2
  store i8* %46, i8** %4, align 8
  br label %47

47:                                               ; preds = %60, %41
  %48 = load i8*, i8** %4, align 8
  %49 = getelementptr inbounds [100 x i8], [100 x i8]* %2, i64 0, i64 0
  %50 = load i32, i32* %8, align 4
  %51 = sext i32 %50 to i64
  %52 = getelementptr inbounds i8, i8* %49, i64 %51
  %53 = getelementptr inbounds i8, i8* %52, i64 3
  %54 = icmp ugt i8* %48, %53
  br i1 %54, label %55, label %63

55:                                               ; preds = %47
  %56 = load i8*, i8** %4, align 8
  %57 = getelementptr inbounds i8, i8* %56, i64 -3
  %58 = load i8, i8* %57, align 1
  %59 = load i8*, i8** %4, align 8
  store i8 %58, i8* %59, align 1
  br label %60

60:                                               ; preds = %55
  %61 = load i8*, i8** %4, align 8
  %62 = getelementptr inbounds i8, i8* %61, i32 -1
  store i8* %62, i8** %4, align 8
  br label %47

63:                                               ; preds = %47
  %64 = load i8*, i8** %5, align 8
  %65 = load i8, i8* %64, align 1
  %66 = getelementptr inbounds [100 x i8], [100 x i8]* %2, i64 0, i64 0
  %67 = load i32, i32* %8, align 4
  %68 = sext i32 %67 to i64
  %69 = getelementptr inbounds i8, i8* %66, i64 %68
  %70 = getelementptr inbounds i8, i8* %69, i64 1
  store i8 %65, i8* %70, align 1
  %71 = load i8*, i8** %5, align 8
  %72 = getelementptr inbounds i8, i8* %71, i64 1
  %73 = load i8, i8* %72, align 1
  %74 = getelementptr inbounds [100 x i8], [100 x i8]* %2, i64 0, i64 0
  %75 = load i32, i32* %8, align 4
  %76 = sext i32 %75 to i64
  %77 = getelementptr inbounds i8, i8* %74, i64 %76
  %78 = getelementptr inbounds i8, i8* %77, i64 2
  store i8 %73, i8* %78, align 1
  %79 = load i8*, i8** %5, align 8
  %80 = getelementptr inbounds i8, i8* %79, i64 2
  %81 = load i8, i8* %80, align 1
  %82 = getelementptr inbounds [100 x i8], [100 x i8]* %2, i64 0, i64 0
  %83 = load i32, i32* %8, align 4
  %84 = sext i32 %83 to i64
  %85 = getelementptr inbounds i8, i8* %82, i64 %84
  %86 = getelementptr inbounds i8, i8* %85, i64 3
  store i8 %81, i8* %86, align 1
  %87 = getelementptr inbounds [100 x i8], [100 x i8]* %2, i64 0, i64 0
  store i8* %87, i8** %4, align 8
  br label %88

88:                                               ; preds = %101, %63
  %89 = load i8*, i8** %4, align 8
  %90 = getelementptr inbounds [100 x i8], [100 x i8]* %2, i64 0, i64 0
  %91 = load i32, i32* %7, align 4
  %92 = sext i32 %91 to i64
  %93 = getelementptr inbounds i8, i8* %90, i64 %92
  %94 = getelementptr inbounds i8, i8* %93, i64 3
  %95 = icmp ult i8* %89, %94
  br i1 %95, label %96, label %104

96:                                               ; preds = %88
  %97 = load i8*, i8** %4, align 8
  %98 = load i8, i8* %97, align 1
  %99 = sext i8 %98 to i32
  %100 = call i32 (i8*, ...) @printf(i8* getelementptr inbounds ([3 x i8], [3 x i8]* @.str.1, i64 0, i64 0), i32 %99)
  br label %101

101:                                              ; preds = %96
  %102 = load i8*, i8** %4, align 8
  %103 = getelementptr inbounds i8, i8* %102, i32 1
  store i8* %103, i8** %4, align 8
  br label %88

104:                                              ; preds = %88
  %105 = call i32 (i8*, ...) @printf(i8* getelementptr inbounds ([2 x i8], [2 x i8]* @.str.2, i64 0, i64 0))
  br label %9

106:                                              ; preds = %9
  %107 = load i32, i32* %1, align 4
  ret i32 %107
}

declare dso_local i32 @__isoc99_scanf(i8*, ...) #1

; Function Attrs: nounwind readonly
declare dso_local i64 @strlen(i8*) #2

declare dso_local i32 @printf(i8*, ...) #1


!llvm.module.flags = !{!0}
!llvm.ident = !{!1}

!0 = !{i32 1, !"wchar_size", i32 4}
!1 = !{!"clang version 10.0.0-4ubuntu1 "}
